; Function Attrs: mustprogress nofree norecurse nosync nounwind willreturn memory(readwrite, inaccessiblemem: none) uwtable
define void @_ZN5folly10IOBufQueue13markPrependedEm(ptr noundef nonnull align 8 captures(none) dereferenceable(64) %0, i64 noundef %1) local_unnamed_addr #7 align 2 personality ptr @__gxx_personality_v0 {
  %3 = icmp eq i64 %1, 0
  br i1 %3, label %16, label %4

4:                                                ; preds = %2
  %5 = getelementptr inbounds nuw i8, ptr %0, i64 16
  %6 = load ptr, ptr %5, align 8, !tbaa !28
  %7 = getelementptr inbounds nuw i8, ptr %6, i64 8
  %8 = load ptr, ptr %7, align 8, !tbaa !44
  %9 = sub i64 0, %1
  %10 = getelementptr inbounds i8, ptr %8, i64 %9
  store ptr %10, ptr %7, align 8, !tbaa !44
  %11 = load i64, ptr %6, align 8, !tbaa !34
  %12 = add i64 %11, %1
  store i64 %12, ptr %6, align 8, !tbaa !34
  %13 = getelementptr inbounds nuw i8, ptr %0, i64 8
  %14 = load i64, ptr %13, align 8, !tbaa !35
  %15 = add i64 %14, %1
  store i64 %15, ptr %13, align 8, !tbaa !35
  br label %16

16:                                               ; preds = %2, %4
  ret void
}